target datalayout = "e-m:e-p270:32:32-p271:32:32-p272:64:64-i64:64-i128:128-f80:128-n8:16:32:64-S128"
target triple = "x86_64-pc-linux-gnu"

%struct.Exstate_s = type { ptr, i32, i32, %struct.Exinput_s, ptr, ptr, ptr, i32, i32, i32, ptr, [1 x i8] }
%struct.Exinput_s = type { ptr, i32, ptr, ptr, i32, i32, i32, i32, ptr, ptr }
%union.EX_STYPE = type { ptr }
%struct.Expr_s = type { ptr, ptr, [10 x ptr], ptr, ptr, ptr, %struct._dtdisc_s, ptr, ptr, ptr, %struct.agxbuf, %union.EX_STYPE, %struct.Exid_s, [512 x i8], ptr, i32, i32, i32, i32, i64, i32, i32 }
%struct._dtdisc_s = type { i32, i32, i32, ptr, ptr, ptr }
%struct.agxbuf = type { %union.anon }
%union.anon = type { %struct.anon }
%struct.anon = type { ptr, i64, i64, [7 x i8], i8 }
%struct.Exid_s = type { %struct._dtlink_s, i64, i64, i64, i64, i64, ptr, ptr, i64, [32 x i8] }
%struct._dtlink_s = type { ptr, %union.anon.0 }
%union.anon.0 = type { ptr }
%struct._dt_s = type { ptr, ptr, ptr, ptr, i32, ptr, ptr, ptr }

@expr = global %struct.Exstate_s zeroinitializer, align 8

; Function Attrs: nounwind uwtable
define i32 @excomp(ptr noundef %0, ptr noundef %1, i32 noundef %2, ptr noundef %3, ptr noundef %4) #0 {
  %6 = alloca i32, align 4
  %7 = alloca ptr, align 8
  %8 = alloca ptr, align 8
  %9 = alloca i32, align 4
  %10 = alloca ptr, align 8
  %11 = alloca ptr, align 8
  %12 = alloca ptr, align 8
  %13 = alloca i32, align 4
  store ptr %0, ptr %7, align 8
  store ptr %1, ptr %8, align 8
  store i32 %2, ptr %9, align 4
  store ptr %3, ptr %10, align 8
  store ptr %4, ptr %11, align 8
  %14 = load ptr, ptr %7, align 8
  %15 = getelementptr inbounds %struct.Expr_s, ptr %14, i32 0, i32 15
  %16 = load i32, ptr %15, align 8
  store i32 %16, ptr %13, align 4
  %17 = load ptr, ptr %7, align 8
  %18 = load ptr, ptr %8, align 8
  %19 = load i32, ptr %9, align 4
  %20 = load ptr, ptr %10, align 8
  %21 = call i32 @expush(ptr noundef %17, ptr noundef %18, i32 noundef %19, ptr noundef %20)
  %22 = icmp ne i32 %21, 0
  br i1 %22, label %23, label %24

23:                                               ; preds = %5
  store i32 -1, ptr %6, align 4
  br label %105

24:                                               ; preds = %5
  %25 = load i32, ptr %9, align 4
  %26 = icmp sge i32 %25, 0
  %27 = zext i1 %26 to i32
  %28 = load ptr, ptr %7, align 8
  %29 = getelementptr inbounds %struct.Expr_s, ptr %28, i32 0, i32 8
  %30 = load ptr, ptr %29, align 8
  %31 = getelementptr inbounds %struct.Exinput_s, ptr %30, i32 0, i32 7
  store i32 %27, ptr %31, align 4
  %32 = load ptr, ptr %11, align 8
  %33 = load ptr, ptr %7, align 8
  %34 = getelementptr inbounds %struct.Expr_s, ptr %33, i32 0, i32 8
  %35 = load ptr, ptr %34, align 8
  %36 = getelementptr inbounds %struct.Exinput_s, ptr %35, i32 0, i32 9
  store ptr %32, ptr %36, align 8
  %37 = load ptr, ptr %7, align 8
  %38 = getelementptr inbounds %struct.Expr_s, ptr %37, i32 0, i32 8
  %39 = load ptr, ptr %38, align 8
  %40 = getelementptr inbounds %struct.Exinput_s, ptr %39, i32 0, i32 8
  store ptr %32, ptr %40, align 8
  %41 = call i32 @ex_parse()
  %42 = load ptr, ptr %7, align 8
  %43 = getelementptr inbounds %struct.Expr_s, ptr %42, i32 0, i32 8
  %44 = load ptr, ptr %43, align 8
  %45 = getelementptr inbounds %struct.Exinput_s, ptr %44, i32 0, i32 7
  store i32 0, ptr %45, align 4
  %46 = load ptr, ptr %7, align 8
  %47 = call i32 @expop(ptr noundef %46)
  %48 = load i32, ptr %13, align 4
  %49 = load ptr, ptr %7, align 8
  %50 = getelementptr inbounds %struct.Expr_s, ptr %49, i32 0, i32 15
  store i32 %48, ptr %50, align 8
  %51 = getelementptr inbounds %struct.Exstate_s, ptr @expr, i32 0, i32 9
  %52 = load i32, ptr %51, align 8
  %53 = icmp ne i32 %52, 0
  br i1 %53, label %54, label %104

54:                                               ; preds = %24
  %55 = load ptr, ptr %7, align 8
  %56 = getelementptr inbounds %struct.Expr_s, ptr %55, i32 0, i32 1
  %57 = load ptr, ptr %56, align 8
  %58 = getelementptr inbounds %struct._dt_s, ptr %57, i32 0, i32 0
  %59 = load ptr, ptr %58, align 8
  %60 = load ptr, ptr %7, align 8
  %61 = getelementptr inbounds %struct.Expr_s, ptr %60, i32 0, i32 1
  %62 = load ptr, ptr %61, align 8
  %63 = call ptr %59(ptr noundef %62, ptr noundef null, i32 noundef 128)
  store ptr %63, ptr %12, align 8
  br label %64

64:                                               ; preds = %91, %54
  %65 = load ptr, ptr %12, align 8
  %66 = icmp ne ptr %65, null
  br i1 %66, label %67, label %102

67:                                               ; preds = %64
  %68 = load ptr, ptr %12, align 8
  %69 = getelementptr inbounds %struct.Exid_s, ptr %68, i32 0, i32 8
  %70 = load i64, ptr %69, align 8
  %71 = icmp ne i64 %70, 0
  br i1 %71, label %72, label %90

72:                                               ; preds = %67
  %73 = load ptr, ptr %7, align 8
  %74 = getelementptr inbounds %struct.Expr_s, ptr %73, i32 0, i32 1
  %75 = load ptr, ptr %74, align 8
  %76 = getelementptr inbounds %struct._dt_s, ptr %75, i32 0, i32 0
  %77 = load ptr, ptr %76, align 8
  %78 = load ptr, ptr %7, align 8
  %79 = getelementptr inbounds %struct.Expr_s, ptr %78, i32 0, i32 1
  %80 = load ptr, ptr %79, align 8
  %81 = load ptr, ptr %12, align 8
  %82 = call ptr %77(ptr noundef %80, ptr noundef %81, i32 noundef 2)
  %83 = getelementptr inbounds %struct.Exstate_s, ptr @expr, i32 0, i32 9
  %84 = load i32, ptr %83, align 8
  %85 = add nsw i32 %84, -1
  %86 = getelementptr inbounds %struct.Exstate_s, ptr @expr, i32 0, i32 9
  store i32 %85, ptr %86, align 8
  %87 = icmp ne i32 %85, 0
  br i1 %87, label %89, label %88

88:                                               ; preds = %72
  br label %102

89:                                               ; preds = %72
  br label %90

90:                                               ; preds = %89, %67
  br label %91

91:                                               ; preds = %90
  %92 = load ptr, ptr %7, align 8
  %93 = getelementptr inbounds %struct.Expr_s, ptr %92, i32 0, i32 1
  %94 = load ptr, ptr %93, align 8
  %95 = getelementptr inbounds %struct._dt_s, ptr %94, i32 0, i32 0
  %96 = load ptr, ptr %95, align 8
  %97 = load ptr, ptr %7, align 8
  %98 = getelementptr inbounds %struct.Expr_s, ptr %97, i32 0, i32 1
  %99 = load ptr, ptr %98, align 8
  %100 = load ptr, ptr %12, align 8
  %101 = call ptr %96(ptr noundef %99, ptr noundef %100, i32 noundef 8)
  store ptr %101, ptr %12, align 8
  br label %64

102:                                              ; preds = %88, %64
  %103 = getelementptr inbounds %struct.Exstate_s, ptr @expr, i32 0, i32 9
  store i32 0, ptr %103, align 8
  br label %104

104:                                              ; preds = %102, %24
  store i32 0, ptr %6, align 4
  br label %105

105:                                              ; preds = %104, %23
  %106 = load i32, ptr %6, align 4
  ret i32 %106
}