; Function Attrs: nounwind uwtable
define range(i32 -1, 1) i32 @excomp(ptr noundef %0, ptr noundef %1, i32 noundef %2, ptr noundef %3, ptr noundef %4) local_unnamed_addr #0 {
  %6 = getelementptr inbounds nuw i8, ptr %0, i64 856
  %7 = load i32, ptr %6, align 8
  %8 = tail call i32 @expush(ptr noundef %0, ptr noundef %1, i32 noundef %2, ptr noundef %3)
  %.not = icmp eq i32 %8, 0
  br i1 %.not, label %9, label %41

9:                                                ; preds = %5
  %10 = icmp sgt i32 %2, -1
  %11 = zext i1 %10 to i32
  %12 = getelementptr inbounds nuw i8, ptr %0, i64 168
  %13 = load ptr, ptr %12, align 8
  %14 = getelementptr inbounds nuw i8, ptr %13, i64 44
  store i32 %11, ptr %14, align 4
  %15 = load ptr, ptr %12, align 8
  %16 = getelementptr inbounds nuw i8, ptr %15, i64 56
  store ptr %4, ptr %16, align 8
  %17 = load ptr, ptr %12, align 8
  %18 = getelementptr inbounds nuw i8, ptr %17, i64 48
  store ptr %4, ptr %18, align 8
  %19 = tail call i32 @ex_parse()
  %20 = load ptr, ptr %12, align 8
  %21 = getelementptr inbounds nuw i8, ptr %20, i64 44
  store i32 0, ptr %21, align 4
  %22 = tail call i32 @expop(ptr noundef nonnull %0)
  store i32 %7, ptr %6, align 8
  %23 = load i32, ptr getelementptr inbounds nuw (i8, ptr @expr, i64 112), align 8
  %.not25 = icmp eq i32 %23, 0
  br i1 %.not25, label %41, label %24

24:                                               ; preds = %9
  %25 = getelementptr inbounds nuw i8, ptr %0, i64 8
  %26 = load ptr, ptr %25, align 8
  %27 = load ptr, ptr %26, align 8
  %28 = tail call ptr %27(ptr noundef nonnull %26, ptr noundef null, i32 noundef 128) #22
  %.not2629 = icmp eq ptr %28, null
  br i1 %.not2629, label %._crit_edge, label %.lr.ph

.lr.ph:                                           ; preds = %24, %37
  %.02430 = phi ptr [ %40, %37 ], [ %28, %24 ]
  %29 = getelementptr inbounds nuw i8, ptr %.02430, i64 72
  %30 = load i64, ptr %29, align 8
  %.not27 = icmp eq i64 %30, 0
  br i1 %.not27, label %37, label %31

31:                                               ; preds = %.lr.ph
  %32 = load ptr, ptr %25, align 8
  %33 = load ptr, ptr %32, align 8
  %34 = tail call ptr %33(ptr noundef nonnull %32, ptr noundef nonnull %.02430, i32 noundef 2) #22
  %35 = load i32, ptr getelementptr inbounds nuw (i8, ptr @expr, i64 112), align 8
  %36 = add nsw i32 %35, -1
  store i32 %36, ptr getelementptr inbounds nuw (i8, ptr @expr, i64 112), align 8
  %.not28 = icmp eq i32 %36, 0
  br i1 %.not28, label %._crit_edge, label %37

37:                                               ; preds = %.lr.ph, %31
  %38 = load ptr, ptr %25, align 8
  %39 = load ptr, ptr %38, align 8
  %40 = tail call ptr %39(ptr noundef nonnull %38, ptr noundef nonnull %.02430, i32 noundef 8) #22
  %.not26 = icmp eq ptr %40, null
  br i1 %.not26, label %._crit_edge, label %.lr.ph

._crit_edge:                                      ; preds = %37, %31, %24
  store i32 0, ptr getelementptr inbounds nuw (i8, ptr @expr, i64 112), align 8
  br label %41

41:                                               ; preds = %9, %._crit_edge, %5
  %.0 = phi i32 [ -1, %5 ], [ 0, %._crit_edge ], [ 0, %9 ]
  ret i32 %.0
}